target datalayout = "e-m:e-p270:32:32-p271:32:32-p272:64:64-i64:64-i128:128-f80:128-n8:16:32:64-S128"
target triple = "x86_64-unknown-linux-gnu"

%"struct.std::_Vector_base" = type { %"struct.std::_Vector_base<std::__cxx11::basic_string<char>, std::allocator<std::__cxx11::basic_string<char>>>::_Vector_impl" }
%"struct.std::_Vector_base<std::__cxx11::basic_string<char>, std::allocator<std::__cxx11::basic_string<char>>>::_Vector_impl" = type { %"struct.std::_Vector_base<std::__cxx11::basic_string<char>, std::allocator<std::__cxx11::basic_string<char>>>::_Vector_impl_data" }
%"struct.std::_Vector_base<std::__cxx11::basic_string<char>, std::allocator<std::__cxx11::basic_string<char>>>::_Vector_impl_data" = type { ptr, ptr, ptr }
%"class.Assimp::B3DImporter" = type { %"class.Assimp::BaseImporter", i64, %"class.std::vector.3", %"class.std::vector.8", %"class.std::vector", %"class.std::vector.13", i32, i32, i32, %"class.std::vector.18", %"class.std::vector.23", %"class.std::vector.28", %"class.std::vector.33", %"class.std::vector.38" }
%"class.Assimp::BaseImporter" = type { ptr, double, double, %"class.std::__cxx11::basic_string", %"class.std::__exception_ptr::exception_ptr", ptr }
%"class.std::__cxx11::basic_string" = type { %"struct.std::__cxx11::basic_string<char>::_Alloc_hider", i64, %union.anon }
%"struct.std::__cxx11::basic_string<char>::_Alloc_hider" = type { ptr }
%union.anon = type { i64, [8 x i8] }
%"class.std::__exception_ptr::exception_ptr" = type { ptr }
%"class.std::vector.3" = type { %"struct.std::_Vector_base.4" }
%"struct.std::_Vector_base.4" = type { %"struct.std::_Vector_base<unsigned char, std::allocator<unsigned char>>::_Vector_impl" }
%"struct.std::_Vector_base<unsigned char, std::allocator<unsigned char>>::_Vector_impl" = type { %"struct.std::_Vector_base<unsigned char, std::allocator<unsigned char>>::_Vector_impl_data" }
%"struct.std::_Vector_base<unsigned char, std::allocator<unsigned char>>::_Vector_impl_data" = type { ptr, ptr, ptr }
%"class.std::vector.8" = type { %"struct.std::_Vector_base.9" }
%"struct.std::_Vector_base.9" = type { %"struct.std::_Vector_base<unsigned long, std::allocator<unsigned long>>::_Vector_impl" }
%"struct.std::_Vector_base<unsigned long, std::allocator<unsigned long>>::_Vector_impl" = type { %"struct.std::_Vector_base<unsigned long, std::allocator<unsigned long>>::_Vector_impl_data" }
%"struct.std::_Vector_base<unsigned long, std::allocator<unsigned long>>::_Vector_impl_data" = type { ptr, ptr, ptr }
%"class.std::vector" = type { %"struct.std::_Vector_base" }
%"class.std::vector.13" = type { %"struct.std::_Vector_base.14" }
%"struct.std::_Vector_base.14" = type { %"struct.std::_Vector_base<std::unique_ptr<aiMaterial>, std::allocator<std::unique_ptr<aiMaterial>>>::_Vector_impl" }
%"struct.std::_Vector_base<std::unique_ptr<aiMaterial>, std::allocator<std::unique_ptr<aiMaterial>>>::_Vector_impl" = type { %"struct.std::_Vector_base<std::unique_ptr<aiMaterial>, std::allocator<std::unique_ptr<aiMaterial>>>::_Vector_impl_data" }
%"struct.std::_Vector_base<std::unique_ptr<aiMaterial>, std::allocator<std::unique_ptr<aiMaterial>>>::_Vector_impl_data" = type { ptr, ptr, ptr }
%"class.std::vector.18" = type { %"struct.std::_Vector_base.19" }
%"struct.std::_Vector_base.19" = type { %"struct.std::_Vector_base<Assimp::B3DImporter::Vertex, std::allocator<Assimp::B3DImporter::Vertex>>::_Vector_impl" }
%"struct.std::_Vector_base<Assimp::B3DImporter::Vertex, std::allocator<Assimp::B3DImporter::Vertex>>::_Vector_impl" = type { %"struct.std::_Vector_base<Assimp::B3DImporter::Vertex, std::allocator<Assimp::B3DImporter::Vertex>>::_Vector_impl_data" }
%"struct.std::_Vector_base<Assimp::B3DImporter::Vertex, std::allocator<Assimp::B3DImporter::Vertex>>::_Vector_impl_data" = type { ptr, ptr, ptr }
%"class.std::vector.23" = type { %"struct.std::_Vector_base.24" }
%"struct.std::_Vector_base.24" = type { %"struct.std::_Vector_base<aiNode *, std::allocator<aiNode *>>::_Vector_impl" }
%"struct.std::_Vector_base<aiNode *, std::allocator<aiNode *>>::_Vector_impl" = type { %"struct.std::_Vector_base<aiNode *, std::allocator<aiNode *>>::_Vector_impl_data" }
%"struct.std::_Vector_base<aiNode *, std::allocator<aiNode *>>::_Vector_impl_data" = type { ptr, ptr, ptr }
%"class.std::vector.28" = type { %"struct.std::_Vector_base.29" }
%"struct.std::_Vector_base.29" = type { %"struct.std::_Vector_base<std::unique_ptr<aiMesh>, std::allocator<std::unique_ptr<aiMesh>>>::_Vector_impl" }
%"struct.std::_Vector_base<std::unique_ptr<aiMesh>, std::allocator<std::unique_ptr<aiMesh>>>::_Vector_impl" = type { %"struct.std::_Vector_base<std::unique_ptr<aiMesh>, std::allocator<std::unique_ptr<aiMesh>>>::_Vector_impl_data" }
%"struct.std::_Vector_base<std::unique_ptr<aiMesh>, std::allocator<std::unique_ptr<aiMesh>>>::_Vector_impl_data" = type { ptr, ptr, ptr }
%"class.std::vector.33" = type { %"struct.std::_Vector_base.34" }
%"struct.std::_Vector_base.34" = type { %"struct.std::_Vector_base<std::unique_ptr<aiNodeAnim>, std::allocator<std::unique_ptr<aiNodeAnim>>>::_Vector_impl" }
%"struct.std::_Vector_base<std::unique_ptr<aiNodeAnim>, std::allocator<std::unique_ptr<aiNodeAnim>>>::_Vector_impl" = type { %"struct.std::_Vector_base<std::unique_ptr<aiNodeAnim>, std::allocator<std::unique_ptr<aiNodeAnim>>>::_Vector_impl_data" }
%"struct.std::_Vector_base<std::unique_ptr<aiNodeAnim>, std::allocator<std::unique_ptr<aiNodeAnim>>>::_Vector_impl_data" = type { ptr, ptr, ptr }
%"class.std::vector.38" = type { %"struct.std::_Vector_base.39" }
%"struct.std::_Vector_base.39" = type { %"struct.std::_Vector_base<std::unique_ptr<aiAnimation>, std::allocator<std::unique_ptr<aiAnimation>>>::_Vector_impl" }
%"struct.std::_Vector_base<std::unique_ptr<aiAnimation>, std::allocator<std::unique_ptr<aiAnimation>>>::_Vector_impl" = type { %"struct.std::_Vector_base<std::unique_ptr<aiAnimation>, std::allocator<std::unique_ptr<aiAnimation>>>::_Vector_impl_data" }
%"struct.std::_Vector_base<std::unique_ptr<aiAnimation>, std::allocator<std::unique_ptr<aiAnimation>>>::_Vector_impl_data" = type { ptr, ptr, ptr }
%"class.std::allocator.0" = type { i8 }

@.str.6 = private unnamed_addr constant [4 x i8] c"EOF\00", align 1

; Function Attrs: mustprogress nounwind uwtable
define linkonce_odr noundef nonnull align 1 dereferenceable(1) ptr @_ZNSt6vectorIhSaIhEEixEm(ptr noundef nonnull align 8 dereferenceable(24) %this, i64 noundef %__n) #0 comdat align 2 {
entry:
  %this.addr = alloca ptr, align 8
  %__n.addr = alloca i64, align 8
  store ptr %this, ptr %this.addr, align 8
  store i64 %__n, ptr %__n.addr, align 8
  %this1 = load ptr, ptr %this.addr, align 8
  %_M_impl = getelementptr inbounds %"struct.std::_Vector_base.4", ptr %this1, i32 0, i32 0
  %_M_start = getelementptr inbounds %"struct.std::_Vector_base<unsigned char, std::allocator<unsigned char>>::_Vector_impl_data", ptr %_M_impl, i32 0, i32 0
  %0 = load ptr, ptr %_M_start, align 8
  %1 = load i64, ptr %__n.addr, align 8
  %add.ptr = getelementptr inbounds i8, ptr %0, i64 %1
  ret ptr %add.ptr
}

; Function Attrs: mustprogress nounwind uwtable
define linkonce_odr noundef i64 @_ZNKSt6vectorIhSaIhEE4sizeEv(ptr noundef nonnull align 8 dereferenceable(24) %this) #0 comdat align 2 {
entry:
  %this.addr = alloca ptr, align 8
  store ptr %this, ptr %this.addr, align 8
  %this1 = load ptr, ptr %this.addr, align 8
  %_M_impl = getelementptr inbounds %"struct.std::_Vector_base.4", ptr %this1, i32 0, i32 0
  %_M_finish = getelementptr inbounds %"struct.std::_Vector_base<unsigned char, std::allocator<unsigned char>>::_Vector_impl_data", ptr %_M_impl, i32 0, i32 1
  %0 = load ptr, ptr %_M_finish, align 8
  %_M_impl2 = getelementptr inbounds %"struct.std::_Vector_base.4", ptr %this1, i32 0, i32 0
  %_M_start = getelementptr inbounds %"struct.std::_Vector_base<unsigned char, std::allocator<unsigned char>>::_Vector_impl_data", ptr %_M_impl2, i32 0, i32 0
  %1 = load ptr, ptr %_M_start, align 8
  %sub.ptr.lhs.cast = ptrtoint ptr %0 to i64
  %sub.ptr.rhs.cast = ptrtoint ptr %1 to i64
  %sub.ptr.sub = sub i64 %sub.ptr.lhs.cast, %sub.ptr.rhs.cast
  ret i64 %sub.ptr.sub
}

; Function Attrs: mustprogress uwtable
define hidden noundef i32 @_ZN6Assimp11B3DImporter8ReadByteEv(ptr noundef nonnull align 8 dereferenceable(312) %this) #4 align 2 personality ptr @__gxx_personality_v0 {
entry:
  %this.addr = alloca ptr, align 8
  %ref.tmp = alloca %"class.std::__cxx11::basic_string", align 8
  %ref.tmp2 = alloca %"class.std::allocator.0", align 1
  %exn.slot = alloca ptr, align 8
  %ehselector.slot = alloca i32, align 4
  store ptr %this, ptr %this.addr, align 8
  %this1 = load ptr, ptr %this.addr, align 8
  %_pos = getelementptr inbounds %"class.Assimp::B3DImporter", ptr %this1, i32 0, i32 1
  %0 = load i64, ptr %_pos, align 8
  %_buf = getelementptr inbounds %"class.Assimp::B3DImporter", ptr %this1, i32 0, i32 2
  %call = call noundef i64 @_ZNKSt6vectorIhSaIhEE4sizeEv(ptr noundef nonnull align 8 dereferenceable(24) %_buf) #15
  %cmp = icmp uge i64 %0, %call
  br i1 %cmp, label %if.then, label %if.end

if.then:                                          ; preds = %entry
  call void @_ZNSaIcEC1Ev(ptr noundef nonnull align 1 dereferenceable(1) %ref.tmp2) #15
  invoke void @_ZNSt7__cxx1112basic_stringIcSt11char_traitsIcESaIcEEC2IS3_EEPKcRKS3_(ptr noundef nonnull align 8 dereferenceable(32) %ref.tmp, ptr noundef @.str.6, ptr noundef nonnull align 1 dereferenceable(1) %ref.tmp2)
          to label %invoke.cont unwind label %lpad

invoke.cont:                                      ; preds = %if.then
  invoke void @_ZN6Assimp11B3DImporter4FailERKNSt7__cxx1112basic_stringIcSt11char_traitsIcESaIcEEE(ptr noundef nonnull align 8 dereferenceable(312) %this1, ptr noundef nonnull align 8 dereferenceable(32) %ref.tmp) #17
          to label %invoke.cont4 unwind label %lpad3

invoke.cont4:                                     ; preds = %invoke.cont
  unreachable

lpad:                                             ; preds = %if.then
  %1 = landingpad { ptr, i32 }
          cleanup
  %2 = extractvalue { ptr, i32 } %1, 0
  store ptr %2, ptr %exn.slot, align 8
  %3 = extractvalue { ptr, i32 } %1, 1
  store i32 %3, ptr %ehselector.slot, align 4
  br label %ehcleanup

lpad3:                                            ; preds = %invoke.cont
  %4 = landingpad { ptr, i32 }
          cleanup
  %5 = extractvalue { ptr, i32 } %4, 0
  store ptr %5, ptr %exn.slot, align 8
  %6 = extractvalue { ptr, i32 } %4, 1
  store i32 %6, ptr %ehselector.slot, align 4
  call void @_ZNSt7__cxx1112basic_stringIcSt11char_traitsIcESaIcEED1Ev(ptr noundef nonnull align 8 dereferenceable(32) %ref.tmp) #15
  br label %ehcleanup

ehcleanup:                                        ; preds = %lpad3, %lpad
  call void @_ZNSaIcED1Ev(ptr noundef nonnull align 1 dereferenceable(1) %ref.tmp2) #15
  br label %eh.resume

if.end:                                           ; preds = %entry
  %_buf5 = getelementptr inbounds %"class.Assimp::B3DImporter", ptr %this1, i32 0, i32 2
  %_pos6 = getelementptr inbounds %"class.Assimp::B3DImporter", ptr %this1, i32 0, i32 1
  %7 = load i64, ptr %_pos6, align 8
  %inc = add i64 %7, 1
  store i64 %inc, ptr %_pos6, align 8
  %call7 = call noundef nonnull align 1 dereferenceable(1) ptr @_ZNSt6vectorIhSaIhEEixEm(ptr noundef nonnull align 8 dereferenceable(24) %_buf5, i64 noundef %7) #15
  %8 = load i8, ptr %call7, align 1
  %conv = zext i8 %8 to i32
  ret i32 %conv

eh.resume:                                        ; preds = %ehcleanup
  %exn = load ptr, ptr %exn.slot, align 8
  %sel = load i32, ptr %ehselector.slot, align 4
  %lpad.val = insertvalue { ptr, i32 } poison, ptr %exn, 0
  %lpad.val8 = insertvalue { ptr, i32 } %lpad.val, i32 %sel, 1
  resume { ptr, i32 } %lpad.val8
}