; Function Attrs: mustprogress uwtable
define hidden noundef i32 @_ZN6Assimp11B3DImporter8ReadByteEv(ptr nocapture noundef nonnull align 8 dereferenceable(312) %this) local_unnamed_addr #3 align 2 personality ptr @__gxx_personality_v0 {
entry:
  %ref.tmp = alloca %"class.std::__cxx11::basic_string", align 8
  %ref.tmp2 = alloca %"class.std::allocator.0", align 1
  %_pos = getelementptr inbounds i8, ptr %this, i64 72
  %0 = load i64, ptr %_pos, align 8
  %_buf = getelementptr inbounds i8, ptr %this, i64 80
  %_M_finish.i = getelementptr inbounds i8, ptr %this, i64 88
  %1 = load ptr, ptr %_M_finish.i, align 8
  %2 = load ptr, ptr %_buf, align 8
  %sub.ptr.lhs.cast.i = ptrtoint ptr %1 to i64
  %sub.ptr.rhs.cast.i = ptrtoint ptr %2 to i64
  %sub.ptr.sub.i = sub i64 %sub.ptr.lhs.cast.i, %sub.ptr.rhs.cast.i
  %cmp.not = icmp ult i64 %0, %sub.ptr.sub.i
  br i1 %cmp.not, label %if.end, label %if.then

if.then:                                          ; preds = %entry
  call void @_ZNSaIcEC1Ev(ptr noundef nonnull align 1 dereferenceable(1) %ref.tmp2) #22
  invoke void @_ZNSt7__cxx1112basic_stringIcSt11char_traitsIcESaIcEEC2IS3_EEPKcRKS3_(ptr noundef nonnull align 8 dereferenceable(32) %ref.tmp, ptr noundef nonnull @.str.6, ptr noundef nonnull align 1 dereferenceable(1) %ref.tmp2)
          to label %invoke.cont unwind label %lpad

invoke.cont:                                      ; preds = %if.then
  invoke void @_ZN6Assimp11B3DImporter4FailERKNSt7__cxx1112basic_stringIcSt11char_traitsIcESaIcEEE(ptr nonnull align 8 poison, ptr noundef nonnull align 8 dereferenceable(32) %ref.tmp) #24
          to label %invoke.cont4 unwind label %lpad3

invoke.cont4:                                     ; preds = %invoke.cont
  unreachable

lpad:                                             ; preds = %if.then
  %3 = landingpad { ptr, i32 }
          cleanup
  br label %ehcleanup

lpad3:                                            ; preds = %invoke.cont
  %4 = landingpad { ptr, i32 }
          cleanup
  call void @_ZNSt7__cxx1112basic_stringIcSt11char_traitsIcESaIcEED1Ev(ptr noundef nonnull align 8 dereferenceable(32) %ref.tmp) #22
  br label %ehcleanup

ehcleanup:                                        ; preds = %lpad3, %lpad
  %.pn = phi { ptr, i32 } [ %4, %lpad3 ], [ %3, %lpad ]
  call void @_ZNSaIcED1Ev(ptr noundef nonnull align 1 dereferenceable(1) %ref.tmp2) #22
  resume { ptr, i32 } %.pn

if.end:                                           ; preds = %entry
  %inc = add nuw i64 %0, 1
  store i64 %inc, ptr %_pos, align 8
  %add.ptr.i = getelementptr inbounds i8, ptr %2, i64 %0
  %5 = load i8, ptr %add.ptr.i, align 1
  %conv = zext i8 %5 to i32
  ret i32 %conv
}